; Function Attrs: nounwind uwtable
define noalias noundef ptr @Kit_IsopResub(ptr noundef %0, ptr noundef %1, i32 noundef %2, ptr noundef %3) local_unnamed_addr #0 {
  %5 = icmp eq ptr %3, null
  br i1 %5, label %6, label %11

6:                                                ; preds = %4
  %calloc = tail call dereferenceable_or_null(16) ptr @calloc(i64 1, i64 16)
  %7 = getelementptr inbounds nuw i8, ptr %calloc, i64 8
  %8 = tail call ptr @Kit_TruthToGraph2(ptr noundef %0, ptr noundef %1, i32 noundef %2, ptr noundef nonnull %calloc) #14
  %9 = load ptr, ptr %7, align 8
  %.not.i = icmp eq ptr %9, null
  br i1 %.not.i, label %Vec_IntFree.exit, label %10

10:                                               ; preds = %6
  tail call void @free(ptr noundef nonnull %9) #14
  br label %Vec_IntFree.exit

Vec_IntFree.exit:                                 ; preds = %6, %10
  tail call void @free(ptr noundef nonnull %calloc) #14
  br label %13

11:                                               ; preds = %4
  %12 = tail call ptr @Kit_TruthToGraph2(ptr noundef %0, ptr noundef %1, i32 noundef %2, ptr noundef nonnull %3) #14
  br label %13

13:                                               ; preds = %11, %Vec_IntFree.exit
  %.0 = phi ptr [ %8, %Vec_IntFree.exit ], [ %12, %11 ]
  %14 = icmp eq ptr %.0, null
  br i1 %14, label %.split21, label %.split

.split:                                           ; preds = %13
  %15 = getelementptr i8, ptr %.0, i64 4
  %.0.val = load i32, ptr %15, align 4
  %16 = getelementptr i8, ptr %.0, i64 8
  %.0.val25 = load i32, ptr %16, align 8
  %17 = sub nsw i32 %.0.val25, %.0.val
  br label %19

.split21:                                         ; preds = %13
  %puts = tail call i32 @puts(ptr nonnull dereferenceable(1) @str.3)
  tail call void @Kit_DsdPrintFromTruth(ptr noundef %0, i32 noundef %2) #14
  %putchar = tail call i32 @putchar(i32 10)
  tail call void @Kit_DsdPrintFromTruth(ptr noundef %1, i32 noundef %2) #14
  %putchar23 = tail call i32 @putchar(i32 10)
  %.val = load i32, ptr inttoptr (i64 4 to ptr), align 4
  %.val24 = load i32, ptr inttoptr (i64 8 to ptr), align 8
  %18 = sub nsw i32 %.val24, %.val
  br label %19

19:                                               ; preds = %.split, %.split21
  %.sink41 = phi i32 [ %17, %.split ], [ %18, %.split21 ]
  %.0.sink = phi ptr [ %.0, %.split ], [ null, %.split21 ]
  %20 = shl nsw i32 %.sink41, 1
  %21 = or disjoint i32 %20, 1
  %22 = tail call noalias dereferenceable_or_null(16) ptr @malloc(i64 noundef 16) #13
  %or.cond.i = icmp ult i32 %20, 15
  %spec.store.select.i = select i1 %or.cond.i, i32 16, i32 %21
  %23 = getelementptr inbounds nuw i8, ptr %22, i64 4
  store i32 0, ptr %23, align 4
  store i32 %spec.store.select.i, ptr %22, align 8
  %24 = sext i32 %spec.store.select.i to i64
  %25 = shl nsw i64 %24, 2
  %26 = tail call noalias ptr @malloc(i64 noundef %25) #13
  %27 = getelementptr inbounds nuw i8, ptr %22, i64 8
  store ptr %26, ptr %27, align 8
  tail call void @Kit_IsopResubInt(ptr noundef %.0.sink, ptr noundef nonnull %22)
  tail call void @Kit_GraphFree(ptr noundef %.0) #14
  ret ptr %22
}